; ModuleID = '35/2156.c'
source_filename = "35/2156.c"
target datalayout = "e-m:e-p270:32:32-p271:32:32-p272:64:64-i64:64-f80:128-n8:16:32:64-S128"
target triple = "x86_64-pc-linux-gnu"

@.str = private unnamed_addr constant [6 x i8] c"%d,%d\00", align 1
@.str.1 = private unnamed_addr constant [3 x i8] c"%d\00", align 1
@.str.2 = private unnamed_addr constant [3 x i8] c"No\00", align 1
@.str.3 = private unnamed_addr constant [4 x i8] c"0+2\00", align 1
@.str.4 = private unnamed_addr constant [4 x i8] c"0+0\00", align 1

; Function Attrs: noinline nounwind uwtable
define dso_local i32 @main() #0 {
  %1 = alloca i32, align 4
  %2 = alloca i32, align 4
  %3 = alloca i32, align 4
  %4 = alloca i8*, align 8
  %5 = alloca i64, align 8
  %6 = alloca i64, align 8
  %7 = alloca i32, align 4
  %8 = alloca i32, align 4
  store i32 0, i32* %1, align 4
  %9 = call i32 (i8*, ...) @__isoc99_scanf(i8* getelementptr inbounds ([6 x i8], [6 x i8]* @.str, i64 0, i64 0), i32* %2, i32* %3)
  %10 = load i32, i32* %2, align 4
  %11 = zext i32 %10 to i64
  %12 = load i32, i32* %3, align 4
  %13 = zext i32 %12 to i64
  %14 = call i8* @llvm.stacksave()
  store i8* %14, i8** %4, align 8
  %15 = mul nuw i64 %11, %13
  %16 = alloca i32, i64 %15, align 16
  store i64 %11, i64* %5, align 8
  store i64 %13, i64* %6, align 8
  store i32 0, i32* %7, align 4
  br label %17

17:                                               ; preds = %39, %0
  %18 = load i32, i32* %7, align 4
  %19 = load i32, i32* %2, align 4
  %20 = icmp slt i32 %18, %19
  br i1 %20, label %21, label %42

21:                                               ; preds = %17
  store i32 0, i32* %8, align 4
  br label %22

22:                                               ; preds = %35, %21
  %23 = load i32, i32* %8, align 4
  %24 = load i32, i32* %3, align 4
  %25 = icmp slt i32 %23, %24
  br i1 %25, label %26, label %38

26:                                               ; preds = %22
  %27 = load i32, i32* %7, align 4
  %28 = sext i32 %27 to i64
  %29 = mul nsw i64 %28, %13
  %30 = getelementptr inbounds i32, i32* %16, i64 %29
  %31 = load i32, i32* %8, align 4
  %32 = sext i32 %31 to i64
  %33 = getelementptr inbounds i32, i32* %30, i64 %32
  %34 = call i32 (i8*, ...) @__isoc99_scanf(i8* getelementptr inbounds ([3 x i8], [3 x i8]* @.str.1, i64 0, i64 0), i32* %33)
  br label %35

35:                                               ; preds = %26
  %36 = load i32, i32* %8, align 4
  %37 = add nsw i32 %36, 1
  store i32 %37, i32* %8, align 4
  br label %22

38:                                               ; preds = %22
  br label %39

39:                                               ; preds = %38
  %40 = load i32, i32* %7, align 4
  %41 = add nsw i32 %40, 1
  store i32 %41, i32* %7, align 4
  br label %17

42:                                               ; preds = %17
  %43 = mul nsw i64 0, %13
  %44 = getelementptr inbounds i32, i32* %16, i64 %43
  %45 = getelementptr inbounds i32, i32* %44, i64 0
  %46 = load i32, i32* %45, align 4
  %47 = icmp eq i32 %46, 1
  br i1 %47, label %48, label %50

48:                                               ; preds = %42
  %49 = call i32 (i8*, ...) @printf(i8* getelementptr inbounds ([3 x i8], [3 x i8]* @.str.2, i64 0, i64 0))
  br label %61

50:                                               ; preds = %42
  %51 = mul nsw i64 0, %13
  %52 = getelementptr inbounds i32, i32* %16, i64 %51
  %53 = getelementptr inbounds i32, i32* %52, i64 0
  %54 = load i32, i32* %53, align 4
  %55 = icmp eq i32 %54, 10
  br i1 %55, label %56, label %58

56:                                               ; preds = %50
  %57 = call i32 (i8*, ...) @printf(i8* getelementptr inbounds ([4 x i8], [4 x i8]* @.str.3, i64 0, i64 0))
  br label %60

58:                                               ; preds = %50
  %59 = call i32 (i8*, ...) @printf(i8* getelementptr inbounds ([4 x i8], [4 x i8]* @.str.4, i64 0, i64 0))
  br label %60

60:                                               ; preds = %58, %56
  br label %61

61:                                               ; preds = %60, %48
  store i32 0, i32* %1, align 4
  %62 = load i8*, i8** %4, align 8
  call void @llvm.stackrestore(i8* %62)
  %63 = load i32, i32* %1, align 4
  ret i32 %63
}

declare dso_local i32 @__isoc99_scanf(i8*, ...) #1

; Function Attrs: nounwind
declare i8* @llvm.stacksave() #2

declare dso_local i32 @printf(i8*, ...) #1

; Function Attrs: nounwind
declare void @llvm.stackrestore(i8*) #2


!llvm.module.flags = !{!0}
!llvm.ident = !{!1}

!0 = !{i32 1, !"wchar_size", i32 4}
!1 = !{!"clang version 10.0.0-4ubuntu1 "}
